; Function Attrs: nounwind sspstrong uwtable
define dso_local noalias noundef ptr @qobject_input_visitor_new_keyval(ptr noundef %obj) local_unnamed_addr #0 {
entry:
  %call.i = tail call noalias dereferenceable_or_null(248) ptr @g_malloc0(i64 noundef 248) #6
  %tobool.not.i = icmp eq ptr %obj, null
  br i1 %tobool.not.i, label %if.else.i, label %qobject_input_visitor_base_new.exit

if.else.i:                                        ; preds = %entry
  tail call void @__assert_fail(ptr noundef nonnull @.str.2, ptr noundef nonnull @.str.1, i32 noundef 697, ptr noundef nonnull @__PRETTY_FUNCTION__.qobject_input_visitor_base_new) #7
  unreachable

qobject_input_visitor_base_new.exit:              ; preds = %entry
  %type.i = getelementptr inbounds nuw i8, ptr %call.i, i64 160
  store i32 1, ptr %type.i, align 8
  store ptr @qobject_input_start_struct, ptr %call.i, align 8
  %check_struct.i = getelementptr inbounds nuw i8, ptr %call.i, i64 8
  store ptr @qobject_input_check_struct, ptr %check_struct.i, align 8
  %end_struct.i = getelementptr inbounds nuw i8, ptr %call.i, i64 16
  store ptr @qobject_input_end_struct, ptr %end_struct.i, align 8
  %start_list.i = getelementptr inbounds nuw i8, ptr %call.i, i64 24
  store ptr @qobject_input_start_list, ptr %start_list.i, align 8
  %next_list.i = getelementptr inbounds nuw i8, ptr %call.i, i64 32
  store ptr @qobject_input_next_list, ptr %next_list.i, align 8
  %check_list.i = getelementptr inbounds nuw i8, ptr %call.i, i64 40
  store ptr @qobject_input_check_list, ptr %check_list.i, align 8
  %end_list.i = getelementptr inbounds nuw i8, ptr %call.i, i64 48
  store ptr @qobject_input_end_list, ptr %end_list.i, align 8
  %start_alternate.i = getelementptr inbounds nuw i8, ptr %call.i, i64 56
  store ptr @qobject_input_start_alternate, ptr %start_alternate.i, align 8
  %optional.i = getelementptr inbounds nuw i8, ptr %call.i, i64 136
  store ptr @qobject_input_optional, ptr %optional.i, align 8
  %policy_reject.i = getelementptr inbounds nuw i8, ptr %call.i, i64 144
  store ptr @qobject_input_policy_reject, ptr %policy_reject.i, align 8
  %free.i = getelementptr inbounds nuw i8, ptr %call.i, i64 208
  store ptr @qobject_input_free, ptr %free.i, align 8
  %refcnt.i.i = getelementptr inbounds nuw i8, ptr %obj, i64 8
  %0 = load i64, ptr %refcnt.i.i, align 8
  %inc.i.i = add i64 %0, 1
  store i64 %inc.i.i, ptr %refcnt.i.i, align 8
  %root.i = getelementptr inbounds nuw i8, ptr %call.i, i64 216
  store ptr %obj, ptr %root.i, align 8
  %type_int64 = getelementptr inbounds nuw i8, ptr %call.i, i64 72
  store ptr @qobject_input_type_int64_keyval, ptr %type_int64, align 8
  %type_uint64 = getelementptr inbounds nuw i8, ptr %call.i, i64 80
  store ptr @qobject_input_type_uint64_keyval, ptr %type_uint64, align 8
  %type_bool = getelementptr inbounds nuw i8, ptr %call.i, i64 96
  store ptr @qobject_input_type_bool_keyval, ptr %type_bool, align 8
  %type_str = getelementptr inbounds nuw i8, ptr %call.i, i64 104
  store ptr @qobject_input_type_str_keyval, ptr %type_str, align 8
  %type_number = getelementptr inbounds nuw i8, ptr %call.i, i64 112
  store ptr @qobject_input_type_number_keyval, ptr %type_number, align 8
  %type_any = getelementptr inbounds nuw i8, ptr %call.i, i64 120
  store ptr @qobject_input_type_any, ptr %type_any, align 8
  %type_null = getelementptr inbounds nuw i8, ptr %call.i, i64 128
  store ptr @qobject_input_type_null, ptr %type_null, align 8
  %type_size = getelementptr inbounds nuw i8, ptr %call.i, i64 88
  store ptr @qobject_input_type_size_keyval, ptr %type_size, align 8
  %keyval = getelementptr inbounds nuw i8, ptr %call.i, i64 224
  store i8 1, ptr %keyval, align 8
  ret ptr %call.i
}